target datalayout = "e-m:e-p270:32:32-p271:32:32-p272:64:64-i64:64-i128:128-f80:128-n8:16:32:64-S128"
target triple = "x86_64-pc-linux-gnu"

%struct.gmx_ana_selvalue_t = type { i32, i32, %union.anon, i32 }
%union.anon = type { ptr }

@.str.9 = private unnamed_addr constant [5 x i8] c"NONE\00", align 1
@.str.10 = private unnamed_addr constant [4 x i8] c"INT\00", align 1
@.str.11 = private unnamed_addr constant [5 x i8] c"REAL\00", align 1
@.str.12 = private unnamed_addr constant [4 x i8] c"STR\00", align 1
@.str.13 = private unnamed_addr constant [4 x i8] c"VEC\00", align 1
@.str.14 = private unnamed_addr constant [6 x i8] c"GROUP\00", align 1

; Function Attrs: mustprogress nounwind uwtable
define noundef ptr @_Z23_gmx_sel_value_type_strPK18gmx_ana_selvalue_t(ptr noundef %0) #0 {
  %2 = alloca ptr, align 8
  %3 = alloca ptr, align 8
  store ptr %0, ptr %2, align 8
  store ptr null, ptr %3, align 8
  %4 = load ptr, ptr %2, align 8
  %5 = getelementptr inbounds %struct.gmx_ana_selvalue_t, ptr %4, i32 0, i32 0
  %6 = load i32, ptr %5, align 8
  switch i32 %6, label %13 [
    i32 0, label %7
    i32 1, label %8
    i32 2, label %9
    i32 3, label %10
    i32 4, label %11
    i32 5, label %12
  ]

7:                                                ; preds = %1
  store ptr @.str.9, ptr %3, align 8
  br label %13

8:                                                ; preds = %1
  store ptr @.str.10, ptr %3, align 8
  br label %13

9:                                                ; preds = %1
  store ptr @.str.11, ptr %3, align 8
  br label %13

10:                                               ; preds = %1
  store ptr @.str.12, ptr %3, align 8
  br label %13

11:                                               ; preds = %1
  store ptr @.str.13, ptr %3, align 8
  br label %13

12:                                               ; preds = %1
  store ptr @.str.14, ptr %3, align 8
  br label %13

13:                                               ; preds = %12, %11, %10, %9, %8, %7, %1
  %14 = load ptr, ptr %3, align 8
  ret ptr %14
}