; Function Attrs: mustprogress nofree norecurse nosync nounwind willreturn memory(argmem: read) uwtable
define noundef ptr @_Z23_gmx_sel_value_type_strPK18gmx_ana_selvalue_t(ptr nocapture noundef readonly %0) local_unnamed_addr #0 {
  %2 = load i32, ptr %0, align 8
  %3 = icmp ult i32 %2, 6
  br i1 %3, label %switch.lookup, label %5

switch.lookup:                                    ; preds = %1
  %4 = zext nneg i32 %2 to i64
  %switch.gep = getelementptr inbounds [6 x ptr], ptr @switch.table._Z23_gmx_selelem_print_treeP8_IO_FILERKN3gmx20SelectionTreeElementEbi.11, i64 0, i64 %4
  %switch.load = load ptr, ptr %switch.gep, align 8
  br label %5

5:                                                ; preds = %switch.lookup, %1
  %.0 = phi ptr [ null, %1 ], [ %switch.load, %switch.lookup ]
  ret ptr %.0
}